target datalayout = "e-m:e-p270:32:32-p271:32:32-p272:64:64-i64:64-i128:128-f80:128-n8:16:32:64-S128"
target triple = "x86_64-pc-linux-gnu"

%class.V3Parse = type { ptr }

; Function Attrs: mustprogress uwtable
define dso_local void @_ZN7V3ParseC2EP10AstNetlistP9VInFilterP10V3ParseSym(ptr noundef nonnull align 8 dereferenceable(8) %0, ptr noundef %1, ptr noundef %2, ptr noundef %3) unnamed_addr #8 align 2 personality ptr @__gxx_personality_v0 {
  %5 = alloca ptr, align 8
  %6 = alloca ptr, align 8
  %7 = alloca ptr, align 8
  %8 = alloca ptr, align 8
  %9 = alloca ptr, align 8
  %10 = alloca i32, align 4
  store ptr %0, ptr %5, align 8, !tbaa !305
  store ptr %1, ptr %6, align 8, !tbaa !161
  store ptr %2, ptr %7, align 8, !tbaa !307
  store ptr %3, ptr %8, align 8, !tbaa !91
  %11 = load ptr, ptr %5, align 8
  %12 = call noalias noundef nonnull ptr @_Znwm(i64 noundef 528) #23
  %13 = load ptr, ptr %6, align 8, !tbaa !161
  %14 = load ptr, ptr %7, align 8, !tbaa !307
  %15 = load ptr, ptr %8, align 8, !tbaa !91
  invoke void @_ZN10V3ParseImpC2EP10AstNetlistP9VInFilterP10V3ParseSym(ptr noundef nonnull align 8 dereferenceable(528) %12, ptr noundef %13, ptr noundef %14, ptr noundef %15)
          to label %16 unwind label %18

16:                                               ; preds = %4
  %17 = getelementptr inbounds nuw %class.V3Parse, ptr %11, i32 0, i32 0
  store ptr %12, ptr %17, align 8, !tbaa !308
  ret void

18:                                               ; preds = %4
  %19 = landingpad { ptr, i32 }
          cleanup
  %20 = extractvalue { ptr, i32 } %19, 0
  store ptr %20, ptr %9, align 8
  %21 = extractvalue { ptr, i32 } %19, 1
  store i32 %21, ptr %10, align 4
  call void @_ZdlPvm(ptr noundef %12, i64 noundef 528) #19
  br label %22

22:                                               ; preds = %18
  %23 = load ptr, ptr %9, align 8
  %24 = load i32, ptr %10, align 4
  %25 = insertvalue { ptr, i32 } poison, ptr %23, 0
  %26 = insertvalue { ptr, i32 } %25, i32 %24, 1
  resume { ptr, i32 } %26
}