; Function Attrs: mustprogress uwtable
define dso_local void @_ZN7V3ParseC2EP10AstNetlistP9VInFilterP10V3ParseSym(ptr noundef nonnull writeonly align 8 captures(none) dereferenceable(8) %0, ptr noundef %1, ptr noundef %2, ptr noundef %3) unnamed_addr #8 align 2 personality ptr @__gxx_personality_v0 {
  %5 = tail call noalias noundef nonnull dereferenceable(528) ptr @_Znwm(i64 noundef 528) #30
  invoke void @_ZN10V3ParseImpC2EP10AstNetlistP9VInFilterP10V3ParseSym(ptr noundef nonnull align 8 dereferenceable(528) %5, ptr noundef %1, ptr noundef %2, ptr noundef %3)
          to label %6 unwind label %7

6:                                                ; preds = %4
  store ptr %5, ptr %0, align 8, !tbaa !515
  ret void

7:                                                ; preds = %4
  %8 = landingpad { ptr, i32 }
          cleanup
  tail call void @_ZdlPvm(ptr noundef nonnull %5, i64 noundef 528) #25
  resume { ptr, i32 } %8
}